target datalayout = "e-m:e-p270:32:32-p271:32:32-p272:64:64-i64:64-i128:128-f80:128-n8:16:32:64-S128"
target triple = "x86_64-pc-linux-gnu"

@mpd_moduli = external hidden constant [0 x i64], align 8

; Function Attrs: inlinehint nounwind uwtable
define internal i32 @ispower2(i64 noundef %0) #2 {
  %2 = alloca i64, align 8
  store i64 %0, ptr %2, align 8, !tbaa !8
  %3 = load i64, ptr %2, align 8, !tbaa !8
  %4 = icmp ne i64 %3, 0
  br i1 %4, label %5, label %11

5:                                                ; preds = %1
  %6 = load i64, ptr %2, align 8, !tbaa !8
  %7 = load i64, ptr %2, align 8, !tbaa !8
  %8 = sub i64 %7, 1
  %9 = and i64 %6, %8
  %10 = icmp eq i64 %9, 0
  br label %11

11:                                               ; preds = %5, %1
  %12 = phi i1 [ false, %1 ], [ %10, %5 ]
  %13 = zext i1 %12 to i32
  ret i32 %13
}

; Function Attrs: inlinehint nounwind uwtable
define internal void @std_setmodulus(i32 noundef %0, ptr noundef %1) #2 {
  %3 = alloca i32, align 4
  %4 = alloca ptr, align 8
  store i32 %0, ptr %3, align 4, !tbaa !10
  store ptr %1, ptr %4, align 8, !tbaa !3
  %5 = load i32, ptr %3, align 4, !tbaa !10
  %6 = sext i32 %5 to i64
  %7 = getelementptr [0 x i64], ptr @mpd_moduli, i64 0, i64 %6
  %8 = load i64, ptr %7, align 8, !tbaa !8
  %9 = load ptr, ptr %4, align 8, !tbaa !3
  store i64 %8, ptr %9, align 8, !tbaa !8
  ret void
}

; Function Attrs: nounwind uwtable
define hidden i32 @fnt_convolute(ptr noundef %0, ptr noundef %1, i64 noundef %2, i32 noundef %3) #0 {
  %5 = alloca i32, align 4
  %6 = alloca ptr, align 8
  %7 = alloca ptr, align 8
  %8 = alloca i64, align 8
  %9 = alloca i32, align 4
  %10 = alloca ptr, align 8
  %11 = alloca ptr, align 8
  %12 = alloca i64, align 8
  %13 = alloca i64, align 8
  %14 = alloca i64, align 8
  %15 = alloca i32, align 4
  %16 = alloca i64, align 8
  %17 = alloca i64, align 8
  %18 = alloca i64, align 8
  %19 = alloca i64, align 8
  %20 = alloca i64, align 8
  %21 = alloca i64, align 8
  %22 = alloca i64, align 8
  %23 = alloca i64, align 8
  store ptr %0, ptr %6, align 8, !tbaa !3
  store ptr %1, ptr %7, align 8, !tbaa !3
  store i64 %2, ptr %8, align 8, !tbaa !8
  store i32 %3, ptr %9, align 4, !tbaa !10
  call void @llvm.lifetime.start.p0(i64 8, ptr %10) #4
  call void @llvm.lifetime.start.p0(i64 8, ptr %11) #4
  call void @llvm.lifetime.start.p0(i64 8, ptr %12) #4
  call void @llvm.lifetime.start.p0(i64 8, ptr %13) #4
  call void @llvm.lifetime.start.p0(i64 8, ptr %14) #4
  %24 = load i32, ptr %9, align 4, !tbaa !10
  call void @std_setmodulus(i32 noundef %24, ptr noundef %13)
  %25 = load i64, ptr %8, align 8, !tbaa !8
  %26 = load i64, ptr %13, align 8, !tbaa !8
  %27 = sub i64 %26, 2
  %28 = load i64, ptr %13, align 8, !tbaa !8
  %29 = call i64 @x64_powmod(i64 noundef %25, i64 noundef %27, i64 noundef %28)
  store i64 %29, ptr %12, align 8, !tbaa !8
  %30 = load i64, ptr %8, align 8, !tbaa !8
  %31 = call i32 @ispower2(i64 noundef %30)
  %32 = icmp ne i32 %31, 0
  br i1 %32, label %33, label %39

33:                                               ; preds = %4
  %34 = load i64, ptr %8, align 8, !tbaa !8
  %35 = icmp ugt i64 %34, 4096
  br i1 %35, label %36, label %37

36:                                               ; preds = %33
  store ptr @six_step_fnt, ptr %10, align 8, !tbaa !12
  store ptr @inv_six_step_fnt, ptr %11, align 8, !tbaa !12
  br label %38

37:                                               ; preds = %33
  store ptr @std_fnt, ptr %10, align 8, !tbaa !12
  store ptr @std_inv_fnt, ptr %11, align 8, !tbaa !12
  br label %38

38:                                               ; preds = %37, %36
  br label %40

39:                                               ; preds = %4
  store ptr @four_step_fnt, ptr %10, align 8, !tbaa !12
  store ptr @inv_four_step_fnt, ptr %11, align 8, !tbaa !12
  br label %40

40:                                               ; preds = %39, %38
  %41 = load ptr, ptr %10, align 8, !tbaa !12
  %42 = load ptr, ptr %6, align 8, !tbaa !3
  %43 = load i64, ptr %8, align 8, !tbaa !8
  %44 = load i32, ptr %9, align 4, !tbaa !10
  %45 = call i32 %41(ptr noundef %42, i64 noundef %43, i32 noundef %44)
  %46 = icmp ne i32 %45, 0
  br i1 %46, label %48, label %47

47:                                               ; preds = %40
  store i32 0, ptr %5, align 4
  store i32 1, ptr %15, align 4
  br label %157

48:                                               ; preds = %40
  %49 = load ptr, ptr %10, align 8, !tbaa !12
  %50 = load ptr, ptr %7, align 8, !tbaa !3
  %51 = load i64, ptr %8, align 8, !tbaa !8
  %52 = load i32, ptr %9, align 4, !tbaa !10
  %53 = call i32 %49(ptr noundef %50, i64 noundef %51, i32 noundef %52)
  %54 = icmp ne i32 %53, 0
  br i1 %54, label %56, label %55

55:                                               ; preds = %48
  store i32 0, ptr %5, align 4
  store i32 1, ptr %15, align 4
  br label %157

56:                                               ; preds = %48
  store i64 0, ptr %14, align 8, !tbaa !8
  br label %57

57:                                               ; preds = %93, %56
  %58 = load i64, ptr %14, align 8, !tbaa !8
  %59 = load i64, ptr %8, align 8, !tbaa !8
  %60 = sub i64 %59, 1
  %61 = icmp ult i64 %58, %60
  br i1 %61, label %62, label %96

62:                                               ; preds = %57
  call void @llvm.lifetime.start.p0(i64 8, ptr %16) #4
  %63 = load ptr, ptr %6, align 8, !tbaa !3
  %64 = load i64, ptr %14, align 8, !tbaa !8
  %65 = getelementptr i64, ptr %63, i64 %64
  %66 = load i64, ptr %65, align 8, !tbaa !8
  store i64 %66, ptr %16, align 8, !tbaa !8
  call void @llvm.lifetime.start.p0(i64 8, ptr %17) #4
  %67 = load ptr, ptr %7, align 8, !tbaa !3
  %68 = load i64, ptr %14, align 8, !tbaa !8
  %69 = getelementptr i64, ptr %67, i64 %68
  %70 = load i64, ptr %69, align 8, !tbaa !8
  store i64 %70, ptr %17, align 8, !tbaa !8
  call void @llvm.lifetime.start.p0(i64 8, ptr %18) #4
  %71 = load ptr, ptr %6, align 8, !tbaa !3
  %72 = load i64, ptr %14, align 8, !tbaa !8
  %73 = add i64 %72, 1
  %74 = getelementptr i64, ptr %71, i64 %73
  %75 = load i64, ptr %74, align 8, !tbaa !8
  store i64 %75, ptr %18, align 8, !tbaa !8
  call void @llvm.lifetime.start.p0(i64 8, ptr %19) #4
  %76 = load ptr, ptr %7, align 8, !tbaa !3
  %77 = load i64, ptr %14, align 8, !tbaa !8
  %78 = add i64 %77, 1
  %79 = getelementptr i64, ptr %76, i64 %78
  %80 = load i64, ptr %79, align 8, !tbaa !8
  store i64 %80, ptr %19, align 8, !tbaa !8
  %81 = load i64, ptr %17, align 8, !tbaa !8
  %82 = load i64, ptr %19, align 8, !tbaa !8
  %83 = load i64, ptr %13, align 8, !tbaa !8
  call void @x64_mulmod2(ptr noundef %16, i64 noundef %81, ptr noundef %18, i64 noundef %82, i64 noundef %83)
  %84 = load i64, ptr %16, align 8, !tbaa !8
  %85 = load ptr, ptr %6, align 8, !tbaa !3
  %86 = load i64, ptr %14, align 8, !tbaa !8
  %87 = getelementptr i64, ptr %85, i64 %86
  store i64 %84, ptr %87, align 8, !tbaa !8
  %88 = load i64, ptr %18, align 8, !tbaa !8
  %89 = load ptr, ptr %6, align 8, !tbaa !3
  %90 = load i64, ptr %14, align 8, !tbaa !8
  %91 = add i64 %90, 1
  %92 = getelementptr i64, ptr %89, i64 %91
  store i64 %88, ptr %92, align 8, !tbaa !8
  call void @llvm.lifetime.end.p0(i64 8, ptr %19) #4
  call void @llvm.lifetime.end.p0(i64 8, ptr %18) #4
  call void @llvm.lifetime.end.p0(i64 8, ptr %17) #4
  call void @llvm.lifetime.end.p0(i64 8, ptr %16) #4
  br label %93

93:                                               ; preds = %62
  %94 = load i64, ptr %14, align 8, !tbaa !8
  %95 = add i64 %94, 2
  store i64 %95, ptr %14, align 8, !tbaa !8
  br label %57, !llvm.loop !13

96:                                               ; preds = %57
  %97 = load ptr, ptr %11, align 8, !tbaa !12
  %98 = load ptr, ptr %6, align 8, !tbaa !3
  %99 = load i64, ptr %8, align 8, !tbaa !8
  %100 = load i32, ptr %9, align 4, !tbaa !10
  %101 = call i32 %97(ptr noundef %98, i64 noundef %99, i32 noundef %100)
  %102 = icmp ne i32 %101, 0
  br i1 %102, label %104, label %103

103:                                              ; preds = %96
  store i32 0, ptr %5, align 4
  store i32 1, ptr %15, align 4
  br label %157

104:                                              ; preds = %96
  store i64 0, ptr %14, align 8, !tbaa !8
  br label %105

105:                                              ; preds = %153, %104
  %106 = load i64, ptr %14, align 8, !tbaa !8
  %107 = load i64, ptr %8, align 8, !tbaa !8
  %108 = sub i64 %107, 3
  %109 = icmp ult i64 %106, %108
  br i1 %109, label %110, label %156

110:                                              ; preds = %105
  call void @llvm.lifetime.start.p0(i64 8, ptr %20) #4
  %111 = load ptr, ptr %6, align 8, !tbaa !3
  %112 = load i64, ptr %14, align 8, !tbaa !8
  %113 = getelementptr i64, ptr %111, i64 %112
  %114 = load i64, ptr %113, align 8, !tbaa !8
  store i64 %114, ptr %20, align 8, !tbaa !8
  call void @llvm.lifetime.start.p0(i64 8, ptr %21) #4
  %115 = load ptr, ptr %6, align 8, !tbaa !3
  %116 = load i64, ptr %14, align 8, !tbaa !8
  %117 = add i64 %116, 1
  %118 = getelementptr i64, ptr %115, i64 %117
  %119 = load i64, ptr %118, align 8, !tbaa !8
  store i64 %119, ptr %21, align 8, !tbaa !8
  call void @llvm.lifetime.start.p0(i64 8, ptr %22) #4
  %120 = load ptr, ptr %6, align 8, !tbaa !3
  %121 = load i64, ptr %14, align 8, !tbaa !8
  %122 = add i64 %121, 2
  %123 = getelementptr i64, ptr %120, i64 %122
  %124 = load i64, ptr %123, align 8, !tbaa !8
  store i64 %124, ptr %22, align 8, !tbaa !8
  call void @llvm.lifetime.start.p0(i64 8, ptr %23) #4
  %125 = load ptr, ptr %6, align 8, !tbaa !3
  %126 = load i64, ptr %14, align 8, !tbaa !8
  %127 = add i64 %126, 3
  %128 = getelementptr i64, ptr %125, i64 %127
  %129 = load i64, ptr %128, align 8, !tbaa !8
  store i64 %129, ptr %23, align 8, !tbaa !8
  %130 = load i64, ptr %12, align 8, !tbaa !8
  %131 = load i64, ptr %13, align 8, !tbaa !8
  call void @x64_mulmod2c(ptr noundef %20, ptr noundef %21, i64 noundef %130, i64 noundef %131)
  %132 = load i64, ptr %12, align 8, !tbaa !8
  %133 = load i64, ptr %13, align 8, !tbaa !8
  call void @x64_mulmod2c(ptr noundef %22, ptr noundef %23, i64 noundef %132, i64 noundef %133)
  %134 = load i64, ptr %20, align 8, !tbaa !8
  %135 = load ptr, ptr %6, align 8, !tbaa !3
  %136 = load i64, ptr %14, align 8, !tbaa !8
  %137 = getelementptr i64, ptr %135, i64 %136
  store i64 %134, ptr %137, align 8, !tbaa !8
  %138 = load i64, ptr %21, align 8, !tbaa !8
  %139 = load ptr, ptr %6, align 8, !tbaa !3
  %140 = load i64, ptr %14, align 8, !tbaa !8
  %141 = add i64 %140, 1
  %142 = getelementptr i64, ptr %139, i64 %141
  store i64 %138, ptr %142, align 8, !tbaa !8
  %143 = load i64, ptr %22, align 8, !tbaa !8
  %144 = load ptr, ptr %6, align 8, !tbaa !3
  %145 = load i64, ptr %14, align 8, !tbaa !8
  %146 = add i64 %145, 2
  %147 = getelementptr i64, ptr %144, i64 %146
  store i64 %143, ptr %147, align 8, !tbaa !8
  %148 = load i64, ptr %23, align 8, !tbaa !8
  %149 = load ptr, ptr %6, align 8, !tbaa !3
  %150 = load i64, ptr %14, align 8, !tbaa !8
  %151 = add i64 %150, 3
  %152 = getelementptr i64, ptr %149, i64 %151
  store i64 %148, ptr %152, align 8, !tbaa !8
  call void @llvm.lifetime.end.p0(i64 8, ptr %23) #4
  call void @llvm.lifetime.end.p0(i64 8, ptr %22) #4
  call void @llvm.lifetime.end.p0(i64 8, ptr %21) #4
  call void @llvm.lifetime.end.p0(i64 8, ptr %20) #4
  br label %153

153:                                              ; preds = %110
  %154 = load i64, ptr %14, align 8, !tbaa !8
  %155 = add i64 %154, 4
  store i64 %155, ptr %14, align 8, !tbaa !8
  br label %105, !llvm.loop !15

156:                                              ; preds = %105
  store i32 1, ptr %5, align 4
  store i32 1, ptr %15, align 4
  br label %157

157:                                              ; preds = %156, %103, %55, %47
  call void @llvm.lifetime.end.p0(i64 8, ptr %14) #4
  call void @llvm.lifetime.end.p0(i64 8, ptr %13) #4
  call void @llvm.lifetime.end.p0(i64 8, ptr %12) #4
  call void @llvm.lifetime.end.p0(i64 8, ptr %11) #4
  call void @llvm.lifetime.end.p0(i64 8, ptr %10) #4
  %158 = load i32, ptr %5, align 4
  ret i32 %158
}