; Function Attrs: nounwind uwtable
define hidden range(i32 0, 2) i32 @fnt_convolute(ptr noundef %0, ptr noundef %1, i64 noundef %2, i32 noundef %3) local_unnamed_addr #0 {
.thread:
  %4 = alloca i64, align 8
  %5 = alloca i64, align 8
  %6 = alloca i64, align 8
  %7 = alloca i64, align 8
  %8 = alloca i64, align 8
  %9 = alloca i64, align 8
  %10 = sext i32 %3 to i64
  %11 = getelementptr [0 x i64], ptr @mpd_moduli, i64 0, i64 %10
  %12 = load i64, ptr %11, align 8, !tbaa !3
  %13 = add i64 %12, -2
  %14 = tail call fastcc i64 @x64_powmod(i64 noundef %2, i64 noundef %13, i64 noundef %12)
  %15 = tail call range(i64 0, 65) i64 @llvm.ctpop.i64(i64 %2)
  %or.cond.not = icmp eq i64 %15, 1
  %16 = icmp ugt i64 %2, 4096
  %six_step_fnt.std_fnt = select i1 %16, ptr @six_step_fnt, ptr @std_fnt
  %inv_six_step_fnt.std_inv_fnt = select i1 %16, ptr @inv_six_step_fnt, ptr @std_inv_fnt
  %17 = select i1 %or.cond.not, ptr %inv_six_step_fnt.std_inv_fnt, ptr @inv_four_step_fnt
  %18 = select i1 %or.cond.not, ptr %six_step_fnt.std_fnt, ptr @four_step_fnt
  %19 = tail call i32 %18(ptr noundef %0, i64 noundef %2, i32 noundef %3) #6, !callees !7
  %.not57 = icmp eq i32 %19, 0
  br i1 %.not57, label %.loopexit, label %20

20:                                               ; preds = %.thread
  %21 = tail call i32 %18(ptr noundef %1, i64 noundef %2, i32 noundef %3) #6, !callees !7
  %.not58 = icmp eq i32 %21, 0
  br i1 %.not58, label %.loopexit, label %.preheader63

.preheader63:                                     ; preds = %20
  %22 = add i64 %2, -1
  %.not67 = icmp eq i64 %22, 0
  br i1 %.not67, label %._crit_edge, label %.lr.ph

.lr.ph:                                           ; preds = %.preheader63, %.lr.ph
  %.05564 = phi i64 [ %34, %.lr.ph ], [ 0, %.preheader63 ]
  call void @llvm.lifetime.start.p0(i64 8, ptr nonnull %4) #6
  %23 = getelementptr i64, ptr %0, i64 %.05564
  %24 = load i64, ptr %23, align 8, !tbaa !3
  store i64 %24, ptr %4, align 8, !tbaa !3
  %25 = getelementptr i64, ptr %1, i64 %.05564
  %26 = load i64, ptr %25, align 8, !tbaa !3
  call void @llvm.lifetime.start.p0(i64 8, ptr nonnull %5) #6
  %27 = or disjoint i64 %.05564, 1
  %28 = getelementptr i64, ptr %0, i64 %27
  %29 = load i64, ptr %28, align 8, !tbaa !3
  store i64 %29, ptr %5, align 8, !tbaa !3
  %30 = getelementptr i64, ptr %1, i64 %27
  %31 = load i64, ptr %30, align 8, !tbaa !3
  call fastcc void @x64_mulmod2(ptr noundef %4, i64 noundef %26, ptr noundef %5, i64 noundef %31, i64 noundef %12)
  %32 = load i64, ptr %4, align 8, !tbaa !3
  store i64 %32, ptr %23, align 8, !tbaa !3
  %33 = load i64, ptr %5, align 8, !tbaa !3
  store i64 %33, ptr %28, align 8, !tbaa !3
  call void @llvm.lifetime.end.p0(i64 8, ptr nonnull %5) #6
  call void @llvm.lifetime.end.p0(i64 8, ptr nonnull %4) #6
  %34 = add i64 %.05564, 2
  %35 = icmp ult i64 %34, %22
  br i1 %35, label %.lr.ph, label %._crit_edge, !llvm.loop !8

._crit_edge:                                      ; preds = %.lr.ph, %.preheader63
  %36 = tail call i32 %17(ptr noundef %0, i64 noundef %2, i32 noundef %3) #6, !callees !10
  %.not59 = icmp eq i32 %36, 0
  br i1 %.not59, label %.loopexit, label %.preheader

.preheader:                                       ; preds = %._crit_edge
  %37 = add i64 %2, -3
  %.not68 = icmp eq i64 %37, 0
  br i1 %.not68, label %.loopexit, label %.lr.ph66

.lr.ph66:                                         ; preds = %.preheader, %.lr.ph66
  %.165 = phi i64 [ %53, %.lr.ph66 ], [ 0, %.preheader ]
  call void @llvm.lifetime.start.p0(i64 8, ptr nonnull %6) #6
  %38 = getelementptr i64, ptr %0, i64 %.165
  %39 = load i64, ptr %38, align 8, !tbaa !3
  store i64 %39, ptr %6, align 8, !tbaa !3
  call void @llvm.lifetime.start.p0(i64 8, ptr nonnull %7) #6
  %40 = or disjoint i64 %.165, 1
  %41 = getelementptr i64, ptr %0, i64 %40
  %42 = load i64, ptr %41, align 8, !tbaa !3
  store i64 %42, ptr %7, align 8, !tbaa !3
  call void @llvm.lifetime.start.p0(i64 8, ptr nonnull %8) #6
  %43 = or disjoint i64 %.165, 2
  %44 = getelementptr i64, ptr %0, i64 %43
  %45 = load i64, ptr %44, align 8, !tbaa !3
  store i64 %45, ptr %8, align 8, !tbaa !3
  call void @llvm.lifetime.start.p0(i64 8, ptr nonnull %9) #6
  %46 = or disjoint i64 %.165, 3
  %47 = getelementptr i64, ptr %0, i64 %46
  %48 = load i64, ptr %47, align 8, !tbaa !3
  store i64 %48, ptr %9, align 8, !tbaa !3
  call fastcc void @x64_mulmod2c(ptr noundef %6, ptr noundef %7, i64 noundef %14, i64 noundef %12)
  call fastcc void @x64_mulmod2c(ptr noundef %8, ptr noundef %9, i64 noundef %14, i64 noundef %12)
  %49 = load i64, ptr %6, align 8, !tbaa !3
  store i64 %49, ptr %38, align 8, !tbaa !3
  %50 = load i64, ptr %7, align 8, !tbaa !3
  store i64 %50, ptr %41, align 8, !tbaa !3
  %51 = load i64, ptr %8, align 8, !tbaa !3
  store i64 %51, ptr %44, align 8, !tbaa !3
  %52 = load i64, ptr %9, align 8, !tbaa !3
  store i64 %52, ptr %47, align 8, !tbaa !3
  call void @llvm.lifetime.end.p0(i64 8, ptr nonnull %9) #6
  call void @llvm.lifetime.end.p0(i64 8, ptr nonnull %8) #6
  call void @llvm.lifetime.end.p0(i64 8, ptr nonnull %7) #6
  call void @llvm.lifetime.end.p0(i64 8, ptr nonnull %6) #6
  %53 = add i64 %.165, 4
  %54 = icmp ult i64 %53, %37
  br i1 %54, label %.lr.ph66, label %.loopexit, !llvm.loop !11

.loopexit:                                        ; preds = %.lr.ph66, %.preheader, %._crit_edge, %20, %.thread
  %.0 = phi i32 [ 0, %.thread ], [ 0, %20 ], [ 0, %._crit_edge ], [ 1, %.preheader ], [ 1, %.lr.ph66 ]
  ret i32 %.0
}